; ModuleID = '14/673.c'
source_filename = "14/673.c"
target datalayout = "e-m:e-p270:32:32-p271:32:32-p272:64:64-i64:64-f80:128-n8:16:32:64-S128"
target triple = "x86_64-pc-linux-gnu"

@.str = private unnamed_addr constant [3 x i8] c"%d\00", align 1
@.str.1 = private unnamed_addr constant [7 x i8] c"%d%d%d\00", align 1
@.str.2 = private unnamed_addr constant [7 x i8] c"%d %d\0A\00", align 1

; Function Attrs: noinline nounwind uwtable
define dso_local i32 @main() #0 {
  %1 = alloca i32, align 4
  %2 = alloca [100001 x [5 x i32]], align 16
  %3 = alloca i32, align 4
  %4 = alloca i32, align 4
  %5 = alloca i32, align 4
  %6 = alloca i32, align 4
  %7 = alloca i32, align 4
  %8 = alloca i32, align 4
  store i32 0, i32* %1, align 4
  store i32 3, i32* %6, align 4
  store i32 0, i32* %7, align 4
  store i32 0, i32* %8, align 4
  %9 = call i32 (i8*, ...) @__isoc99_scanf(i8* getelementptr inbounds ([3 x i8], [3 x i8]* @.str, i64 0, i64 0), i32* %5)
  store i32 1, i32* %3, align 4
  br label %10

10:                                               ; preds = %43, %0
  %11 = load i32, i32* %3, align 4
  %12 = load i32, i32* %5, align 4
  %13 = icmp sle i32 %11, %12
  br i1 %13, label %14, label %46

14:                                               ; preds = %10
  %15 = load i32, i32* %3, align 4
  %16 = sext i32 %15 to i64
  %17 = getelementptr inbounds [100001 x [5 x i32]], [100001 x [5 x i32]]* %2, i64 0, i64 %16
  %18 = getelementptr inbounds [5 x i32], [5 x i32]* %17, i64 0, i64 1
  %19 = load i32, i32* %3, align 4
  %20 = sext i32 %19 to i64
  %21 = getelementptr inbounds [100001 x [5 x i32]], [100001 x [5 x i32]]* %2, i64 0, i64 %20
  %22 = getelementptr inbounds [5 x i32], [5 x i32]* %21, i64 0, i64 2
  %23 = load i32, i32* %3, align 4
  %24 = sext i32 %23 to i64
  %25 = getelementptr inbounds [100001 x [5 x i32]], [100001 x [5 x i32]]* %2, i64 0, i64 %24
  %26 = getelementptr inbounds [5 x i32], [5 x i32]* %25, i64 0, i64 3
  %27 = call i32 (i8*, ...) @__isoc99_scanf(i8* getelementptr inbounds ([7 x i8], [7 x i8]* @.str.1, i64 0, i64 0), i32* %18, i32* %22, i32* %26)
  %28 = load i32, i32* %3, align 4
  %29 = sext i32 %28 to i64
  %30 = getelementptr inbounds [100001 x [5 x i32]], [100001 x [5 x i32]]* %2, i64 0, i64 %29
  %31 = getelementptr inbounds [5 x i32], [5 x i32]* %30, i64 0, i64 2
  %32 = load i32, i32* %31, align 4
  %33 = load i32, i32* %3, align 4
  %34 = sext i32 %33 to i64
  %35 = getelementptr inbounds [100001 x [5 x i32]], [100001 x [5 x i32]]* %2, i64 0, i64 %34
  %36 = getelementptr inbounds [5 x i32], [5 x i32]* %35, i64 0, i64 3
  %37 = load i32, i32* %36, align 4
  %38 = add nsw i32 %32, %37
  %39 = load i32, i32* %3, align 4
  %40 = sext i32 %39 to i64
  %41 = getelementptr inbounds [100001 x [5 x i32]], [100001 x [5 x i32]]* %2, i64 0, i64 %40
  %42 = getelementptr inbounds [5 x i32], [5 x i32]* %41, i64 0, i64 4
  store i32 %38, i32* %42, align 4
  br label %43

43:                                               ; preds = %14
  %44 = load i32, i32* %3, align 4
  %45 = add nsw i32 %44, 1
  store i32 %45, i32* %3, align 4
  br label %10

46:                                               ; preds = %10
  br label %47

47:                                               ; preds = %75, %46
  %48 = load i32, i32* %6, align 4
  %49 = add nsw i32 %48, -1
  store i32 %49, i32* %6, align 4
  %50 = icmp ne i32 %48, 0
  br i1 %50, label %51, label %87

51:                                               ; preds = %47
  store i32 1, i32* %3, align 4
  br label %52

52:                                               ; preds = %72, %51
  %53 = load i32, i32* %3, align 4
  %54 = load i32, i32* %5, align 4
  %55 = icmp sle i32 %53, %54
  br i1 %55, label %56, label %75

56:                                               ; preds = %52
  %57 = load i32, i32* %3, align 4
  %58 = sext i32 %57 to i64
  %59 = getelementptr inbounds [100001 x [5 x i32]], [100001 x [5 x i32]]* %2, i64 0, i64 %58
  %60 = getelementptr inbounds [5 x i32], [5 x i32]* %59, i64 0, i64 4
  %61 = load i32, i32* %60, align 4
  %62 = load i32, i32* %7, align 4
  %63 = icmp sgt i32 %61, %62
  br i1 %63, label %64, label %71

64:                                               ; preds = %56
  %65 = load i32, i32* %3, align 4
  %66 = sext i32 %65 to i64
  %67 = getelementptr inbounds [100001 x [5 x i32]], [100001 x [5 x i32]]* %2, i64 0, i64 %66
  %68 = getelementptr inbounds [5 x i32], [5 x i32]* %67, i64 0, i64 4
  %69 = load i32, i32* %68, align 4
  store i32 %69, i32* %7, align 4
  %70 = load i32, i32* %3, align 4
  store i32 %70, i32* %8, align 4
  br label %71

71:                                               ; preds = %64, %56
  br label %72

72:                                               ; preds = %71
  %73 = load i32, i32* %3, align 4
  %74 = add nsw i32 %73, 1
  store i32 %74, i32* %3, align 4
  br label %52

75:                                               ; preds = %52
  %76 = load i32, i32* %8, align 4
  %77 = load i32, i32* %8, align 4
  %78 = sext i32 %77 to i64
  %79 = getelementptr inbounds [100001 x [5 x i32]], [100001 x [5 x i32]]* %2, i64 0, i64 %78
  %80 = getelementptr inbounds [5 x i32], [5 x i32]* %79, i64 0, i64 4
  %81 = load i32, i32* %80, align 4
  %82 = call i32 (i8*, ...) @printf(i8* getelementptr inbounds ([7 x i8], [7 x i8]* @.str.2, i64 0, i64 0), i32 %76, i32 %81)
  %83 = load i32, i32* %8, align 4
  %84 = sext i32 %83 to i64
  %85 = getelementptr inbounds [100001 x [5 x i32]], [100001 x [5 x i32]]* %2, i64 0, i64 %84
  %86 = getelementptr inbounds [5 x i32], [5 x i32]* %85, i64 0, i64 4
  store i32 0, i32* %86, align 4
  store i32 0, i32* %7, align 4
  br label %47

87:                                               ; preds = %47
  %88 = load i32, i32* %1, align 4
  ret i32 %88
}

declare dso_local i32 @__isoc99_scanf(i8*, ...) #1

declare dso_local i32 @printf(i8*, ...) #1


!llvm.module.flags = !{!0}
!llvm.ident = !{!1}

!0 = !{i32 1, !"wchar_size", i32 4}
!1 = !{!"clang version 10.0.0-4ubuntu1 "}
